target datalayout = "e-m:e-p270:32:32-p271:32:32-p272:64:64-i64:64-i128:128-f80:128-n8:16:32:64-S128"
target triple = "x86_64-unknown-linux-gnu"

%class.btVector3 = type { [4 x float] }
%struct.btMultibodyLink = type { float, %class.btVector3, i32, %class.btQuaternion, %class.btVector3, %class.btVector3, %struct.btSpatialMotionVector, %struct.btSpatialMotionVector, [6 x %struct.btSpatialMotionVector], i32, i32, %class.btQuaternion, %class.btVector3, %class.btQuaternion, %class.btVector3, %class.btVector3, %class.btVector3, %class.btVector3, %class.btVector3, [7 x float], [7 x float], [6 x float], ptr, i32, i32, i32, i32, ptr, %class.btTransform, ptr, ptr, ptr, float, float, float, float, float, float }
%struct.btSpatialMotionVector = type { %class.btVector3, %class.btVector3 }
%class.btQuaternion = type { %class.btQuadWord }
%class.btQuadWord = type { [4 x float] }
%class.btTransform = type { %class.btMatrix3x3, %class.btVector3 }
%class.btMatrix3x3 = type { [3 x %class.btVector3] }
%class.btMultiBody = type { ptr, ptr, ptr, %class.btVector3, %class.btVector3, %class.btQuaternion, %class.btQuaternion, float, %class.btVector3, %class.btVector3, %class.btVector3, %class.btVector3, %class.btVector3, [4 x i8], %class.btAlignedObjectArray, %class.btAlignedObjectArray.0, %class.btAlignedObjectArray.0, %class.btAlignedObjectArray.0, %class.btAlignedObjectArray.4, %class.btAlignedObjectArray.8, %class.btMatrix3x3, %class.btMatrix3x3, %class.btMatrix3x3, %class.btMatrix3x3, i8, i8, i8, i8, i8, float, float, float, ptr, i32, i32, i32, float, float, i8, float, float, i8, i8, i32, i32, i8, i8, i8, i8 }
%class.btAlignedObjectArray = type <{ %class.btAlignedAllocator, [3 x i8], i32, i32, [4 x i8], ptr, i8, [7 x i8] }>
%class.btAlignedAllocator = type { i8 }
%class.btAlignedObjectArray.0 = type <{ %class.btAlignedAllocator.1, [3 x i8], i32, i32, [4 x i8], ptr, i8, [7 x i8] }>
%class.btAlignedAllocator.1 = type { i8 }
%class.btAlignedObjectArray.4 = type <{ %class.btAlignedAllocator.5, [3 x i8], i32, i32, [4 x i8], ptr, i8, [7 x i8] }>
%class.btAlignedAllocator.5 = type { i8 }
%class.btAlignedObjectArray.8 = type <{ %class.btAlignedAllocator.9, [3 x i8], i32, i32, [4 x i8], ptr, i8, [7 x i8] }>
%class.btAlignedAllocator.9 = type { i8 }

; Function Attrs: mustprogress nounwind uwtable
define linkonce_odr dso_local noundef nonnull align 4 dereferenceable(4) ptr @_ZN20btAlignedObjectArrayIfEixEi(ptr noundef nonnull align 8 dereferenceable(25) %this, i32 noundef %n) #1 comdat align 2 {
entry:
  %this.addr = alloca ptr, align 8
  %n.addr = alloca i32, align 4
  store ptr %this, ptr %this.addr, align 8
  store i32 %n, ptr %n.addr, align 4
  %this1 = load ptr, ptr %this.addr, align 8
  %m_data = getelementptr inbounds %class.btAlignedObjectArray.0, ptr %this1, i32 0, i32 5
  %0 = load ptr, ptr %m_data, align 8
  %1 = load i32, ptr %n.addr, align 4
  %idxprom = sext i32 %1 to i64
  %arrayidx = getelementptr inbounds float, ptr %0, i64 %idxprom
  ret ptr %arrayidx
}

; Function Attrs: mustprogress nounwind uwtable
define linkonce_odr dso_local noundef nonnull align 8 dereferenceable(688) ptr @_ZN20btAlignedObjectArrayI15btMultibodyLinkEixEi(ptr noundef nonnull align 8 dereferenceable(25) %this, i32 noundef %n) #1 comdat align 2 {
entry:
  %this.addr = alloca ptr, align 8
  %n.addr = alloca i32, align 4
  store ptr %this, ptr %this.addr, align 8
  store i32 %n, ptr %n.addr, align 4
  %this1 = load ptr, ptr %this.addr, align 8
  %m_data = getelementptr inbounds %class.btAlignedObjectArray, ptr %this1, i32 0, i32 5
  %0 = load ptr, ptr %m_data, align 8
  %1 = load i32, ptr %n.addr, align 4
  %idxprom = sext i32 %1 to i64
  %arrayidx = getelementptr inbounds %struct.btMultibodyLink, ptr %0, i64 %idxprom
  ret ptr %arrayidx
}

; Function Attrs: mustprogress uwtable
define dso_local void @_ZN11btMultiBody19setJointVelMultiDofEiPKf(ptr noundef nonnull align 8 dereferenceable(640) %this, i32 noundef %i, ptr noundef %qdot) #3 align 2 {
entry:
  %this.addr = alloca ptr, align 8
  %i.addr = alloca i32, align 4
  %qdot.addr = alloca ptr, align 8
  %dof = alloca i32, align 4
  store ptr %this, ptr %this.addr, align 8
  store i32 %i, ptr %i.addr, align 4
  store ptr %qdot, ptr %qdot.addr, align 8
  %this1 = load ptr, ptr %this.addr, align 8
  store i32 0, ptr %dof, align 4
  br label %for.cond

for.cond:                                         ; preds = %for.inc, %entry
  %0 = load i32, ptr %dof, align 4
  %m_links = getelementptr inbounds %class.btMultiBody, ptr %this1, i32 0, i32 14
  %1 = load i32, ptr %i.addr, align 4
  %call = call noundef nonnull align 8 dereferenceable(688) ptr @_ZN20btAlignedObjectArrayI15btMultibodyLinkEixEi(ptr noundef nonnull align 8 dereferenceable(25) %m_links, i32 noundef %1)
  %m_dofCount = getelementptr inbounds %struct.btMultibodyLink, ptr %call, i32 0, i32 24
  %2 = load i32, ptr %m_dofCount, align 4
  %cmp = icmp slt i32 %0, %2
  br i1 %cmp, label %for.body, label %for.end

for.body:                                         ; preds = %for.cond
  %3 = load ptr, ptr %qdot.addr, align 8
  %4 = load i32, ptr %dof, align 4
  %idxprom = sext i32 %4 to i64
  %arrayidx = getelementptr inbounds float, ptr %3, i64 %idxprom
  %5 = load float, ptr %arrayidx, align 4
  %m_realBuf = getelementptr inbounds %class.btMultiBody, ptr %this1, i32 0, i32 17
  %m_links2 = getelementptr inbounds %class.btMultiBody, ptr %this1, i32 0, i32 14
  %6 = load i32, ptr %i.addr, align 4
  %call3 = call noundef nonnull align 8 dereferenceable(688) ptr @_ZN20btAlignedObjectArrayI15btMultibodyLinkEixEi(ptr noundef nonnull align 8 dereferenceable(25) %m_links2, i32 noundef %6)
  %m_dofOffset = getelementptr inbounds %struct.btMultibodyLink, ptr %call3, i32 0, i32 9
  %7 = load i32, ptr %m_dofOffset, align 8
  %add = add nsw i32 6, %7
  %8 = load i32, ptr %dof, align 4
  %add4 = add nsw i32 %add, %8
  %call5 = call noundef nonnull align 4 dereferenceable(4) ptr @_ZN20btAlignedObjectArrayIfEixEi(ptr noundef nonnull align 8 dereferenceable(25) %m_realBuf, i32 noundef %add4)
  store float %5, ptr %call5, align 4
  br label %for.inc

for.inc:                                          ; preds = %for.body
  %9 = load i32, ptr %dof, align 4
  %inc = add nsw i32 %9, 1
  store i32 %inc, ptr %dof, align 4
  br label %for.cond, !llvm.loop !21

for.end:                                          ; preds = %for.cond
  ret void
}