; Function Attrs: mustprogress nofree norecurse nosync nounwind memory(readwrite, inaccessiblemem: none) uwtable
define dso_local void @_ZN11btMultiBody19setJointVelMultiDofEiPKf(ptr nocapture noundef nonnull readonly align 8 dereferenceable(640) %this, i32 noundef %i, ptr nocapture noundef readonly %qdot) local_unnamed_addr #9 align 2 {
entry:
  %m_data.i = getelementptr inbounds i8, ptr %this, i64 192
  %idxprom.i = sext i32 %i to i64
  %0 = load ptr, ptr %m_data.i, align 8
  %m_dofCount12 = getelementptr inbounds %struct.btMultibodyLink, ptr %0, i64 %idxprom.i, i32 24
  %1 = load i32, ptr %m_dofCount12, align 4
  %cmp13 = icmp sgt i32 %1, 0
  br i1 %cmp13, label %for.body.lr.ph, label %for.end

for.body.lr.ph:                                   ; preds = %entry
  %m_data.i8 = getelementptr inbounds i8, ptr %this, i64 288
  br label %for.body

for.body:                                         ; preds = %for.body.lr.ph, %for.body
  %indvars.iv = phi i64 [ 0, %for.body.lr.ph ], [ %indvars.iv.next, %for.body ]
  %2 = phi ptr [ %0, %for.body.lr.ph ], [ %8, %for.body ]
  %arrayidx = getelementptr inbounds float, ptr %qdot, i64 %indvars.iv
  %3 = load float, ptr %arrayidx, align 4
  %m_dofOffset = getelementptr inbounds %struct.btMultibodyLink, ptr %2, i64 %idxprom.i, i32 9
  %4 = load i32, ptr %m_dofOffset, align 8
  %5 = trunc i64 %indvars.iv to i32
  %6 = add i32 %5, 6
  %add4 = add i32 %6, %4
  %7 = load ptr, ptr %m_data.i8, align 8
  %idxprom.i9 = sext i32 %add4 to i64
  %arrayidx.i10 = getelementptr inbounds float, ptr %7, i64 %idxprom.i9
  store float %3, ptr %arrayidx.i10, align 4
  %indvars.iv.next = add nuw nsw i64 %indvars.iv, 1
  %8 = load ptr, ptr %m_data.i, align 8
  %m_dofCount = getelementptr inbounds %struct.btMultibodyLink, ptr %8, i64 %idxprom.i, i32 24
  %9 = load i32, ptr %m_dofCount, align 4
  %10 = sext i32 %9 to i64
  %cmp = icmp slt i64 %indvars.iv.next, %10
  br i1 %cmp, label %for.body, label %for.end, !llvm.loop !20

for.end:                                          ; preds = %for.body, %entry
  ret void
}